target datalayout = "e-m:e-p270:32:32-p271:32:32-p272:64:64-i64:64-i128:128-f80:128-n8:16:32:64-S128"
target triple = "x86_64-pc-linux-gnu"

%struct.pg_locale_struct = type { i8, i8, i8, i8, i8, ptr, %union.anon }
%union.anon = type { %struct.anon }
%struct.anon = type { ptr, i8 }
%struct.__locale_struct = type { [13 x ptr], ptr, ptr, ptr, [13 x ptr] }

@pg_regex_strategy = internal global i32 0, align 4
@pg_regex_locale = internal global ptr null, align 8

; Function Attrs: nounwind uwtable
define internal i32 @pg_wc_tolower(i32 noundef %0) #0 {
  %2 = alloca i32, align 4
  %3 = alloca i32, align 4
  %4 = alloca i32, align 4
  %5 = alloca i32, align 4
  store i32 %0, ptr %3, align 4
  %6 = load i32, ptr @pg_regex_strategy, align 4
  switch i32 %6, label %48 [
    i32 0, label %7
    i32 1, label %17
    i32 2, label %20
    i32 3, label %26
    i32 4, label %45
  ]

7:                                                ; preds = %1
  %8 = load i32, ptr %3, align 4
  %9 = icmp ule i32 %8, 127
  br i1 %9, label %10, label %15

10:                                               ; preds = %7
  %11 = load i32, ptr %3, align 4
  %12 = trunc i32 %11 to i8
  %13 = call zeroext i8 @pg_ascii_tolower(i8 noundef zeroext %12)
  %14 = zext i8 %13 to i32
  store i32 %14, ptr %2, align 4
  br label %49

15:                                               ; preds = %7
  %16 = load i32, ptr %3, align 4
  store i32 %16, ptr %2, align 4
  br label %49

17:                                               ; preds = %1
  %18 = load i32, ptr %3, align 4
  %19 = call i32 @unicode_lowercase_simple(i32 noundef %18)
  store i32 %19, ptr %2, align 4
  br label %49

20:                                               ; preds = %1
  %21 = load i32, ptr %3, align 4
  %22 = load ptr, ptr @pg_regex_locale, align 8
  %23 = getelementptr inbounds nuw %struct.pg_locale_struct, ptr %22, i32 0, i32 6
  %24 = load ptr, ptr %23, align 8
  %25 = call i32 @towlower_l(i32 noundef %21, ptr noundef %24) #12
  store i32 %25, ptr %2, align 4
  br label %49

26:                                               ; preds = %1
  %27 = load i32, ptr %3, align 4
  %28 = icmp ule i32 %27, 255
  br i1 %28, label %29, label %43

29:                                               ; preds = %26
  call void @llvm.lifetime.start.p0(i64 4, ptr %4) #12
  %30 = load ptr, ptr @pg_regex_locale, align 8
  %31 = getelementptr inbounds nuw %struct.pg_locale_struct, ptr %30, i32 0, i32 6
  %32 = load ptr, ptr %31, align 8
  %33 = getelementptr inbounds nuw %struct.__locale_struct, ptr %32, i32 0, i32 2
  %34 = load ptr, ptr %33, align 8
  %35 = load i32, ptr %3, align 4
  %36 = trunc i32 %35 to i8
  %37 = zext i8 %36 to i32
  %38 = sext i32 %37 to i64
  %39 = getelementptr inbounds i32, ptr %34, i64 %38
  %40 = load i32, ptr %39, align 4
  store i32 %40, ptr %4, align 4
  %41 = load i32, ptr %4, align 4
  store i32 %41, ptr %5, align 4
  call void @llvm.lifetime.end.p0(i64 4, ptr %4) #12
  %42 = load i32, ptr %5, align 4
  store i32 %42, ptr %2, align 4
  br label %49

43:                                               ; preds = %26
  %44 = load i32, ptr %3, align 4
  store i32 %44, ptr %2, align 4
  br label %49

45:                                               ; preds = %1
  %46 = load i32, ptr %3, align 4
  %47 = call i32 @u_tolower_70(i32 noundef %46)
  store i32 %47, ptr %2, align 4
  br label %49

48:                                               ; preds = %1
  store i32 0, ptr %2, align 4
  br label %49

49:                                               ; preds = %48, %45, %43, %29, %20, %17, %15, %10
  %50 = load i32, ptr %2, align 4
  ret i32 %50
}

; Function Attrs: nounwind uwtable
define internal i32 @casecmp(ptr noundef %0, ptr noundef %1, i64 noundef %2) #0 {
  %4 = alloca i32, align 4
  %5 = alloca ptr, align 8
  %6 = alloca ptr, align 8
  %7 = alloca i64, align 8
  store ptr %0, ptr %5, align 8
  store ptr %1, ptr %6, align 8
  store i64 %2, ptr %7, align 8
  br label %8

8:                                                ; preds = %27, %3
  %9 = load i64, ptr %7, align 8
  %10 = icmp ugt i64 %9, 0
  br i1 %10, label %11, label %34

11:                                               ; preds = %8
  %12 = load ptr, ptr %5, align 8
  %13 = load i32, ptr %12, align 4
  %14 = load ptr, ptr %6, align 8
  %15 = load i32, ptr %14, align 4
  %16 = icmp ne i32 %13, %15
  br i1 %16, label %17, label %26

17:                                               ; preds = %11
  %18 = load ptr, ptr %5, align 8
  %19 = load i32, ptr %18, align 4
  %20 = call i32 @pg_wc_tolower(i32 noundef %19)
  %21 = load ptr, ptr %6, align 8
  %22 = load i32, ptr %21, align 4
  %23 = call i32 @pg_wc_tolower(i32 noundef %22)
  %24 = icmp ne i32 %20, %23
  br i1 %24, label %25, label %26

25:                                               ; preds = %17
  store i32 1, ptr %4, align 4
  br label %35

26:                                               ; preds = %17, %11
  br label %27

27:                                               ; preds = %26
  %28 = load i64, ptr %7, align 8
  %29 = add i64 %28, -1
  store i64 %29, ptr %7, align 8
  %30 = load ptr, ptr %5, align 8
  %31 = getelementptr inbounds nuw i32, ptr %30, i32 1
  store ptr %31, ptr %5, align 8
  %32 = load ptr, ptr %6, align 8
  %33 = getelementptr inbounds nuw i32, ptr %32, i32 1
  store ptr %33, ptr %6, align 8
  br label %8, !llvm.loop !27

34:                                               ; preds = %8
  store i32 0, ptr %4, align 4
  br label %35

35:                                               ; preds = %34, %25
  %36 = load i32, ptr %4, align 4
  ret i32 %36
}