; Function Attrs: nounwind uwtable
define internal range(i32 0, 2) i32 @casecmp(ptr noundef readonly captures(none) %0, ptr noundef readonly captures(none) %1, i64 noundef %2) #0 {
  %.not23 = icmp eq i64 %2, 0
  br i1 %.not23, label %._crit_edge, label %.lr.ph

.lr.ph:                                           ; preds = %3, %61
  %.030 = phi i64 [ %62, %61 ], [ %2, %3 ]
  %.0825 = phi ptr [ %64, %61 ], [ %1, %3 ]
  %.0924 = phi ptr [ %63, %61 ], [ %0, %3 ]
  %4 = load i32, ptr %.0924, align 4
  %5 = load i32, ptr %.0825, align 4
  %.not12 = icmp eq i32 %4, %5
  br i1 %.not12, label %61, label %6

6:                                                ; preds = %.lr.ph
  %7 = load i32, ptr @pg_regex_strategy, align 4
  switch i32 %7, label %default.unreachable.i [
    i32 0, label %8
    i32 1, label %14
    i32 2, label %16
    i32 3, label %21
    i32 4, label %32
  ]

8:                                                ; preds = %6
  %9 = icmp ult i32 %4, 128
  br i1 %9, label %10, label %pg_wc_tolower.exit.thread

10:                                               ; preds = %8
  %11 = trunc nuw nsw i32 %4 to i8
  %12 = tail call zeroext i8 @pg_ascii_tolower(i8 noundef zeroext %11) #20
  %13 = zext i8 %12 to i32
  br label %pg_wc_tolower.exit

14:                                               ; preds = %6
  %15 = tail call i32 @unicode_lowercase_simple(i32 noundef %4) #20
  br label %pg_wc_tolower.exit

16:                                               ; preds = %6
  %17 = load ptr, ptr @pg_regex_locale, align 8
  %18 = getelementptr inbounds nuw i8, ptr %17, i64 16
  %19 = load ptr, ptr %18, align 8
  %20 = tail call i32 @towlower_l(i32 noundef %4, ptr noundef %19) #20
  br label %pg_wc_tolower.exit

21:                                               ; preds = %6
  %22 = icmp ult i32 %4, 256
  br i1 %22, label %23, label %pg_wc_tolower.exit.thread20

23:                                               ; preds = %21
  %24 = load ptr, ptr @pg_regex_locale, align 8
  %25 = getelementptr inbounds nuw i8, ptr %24, i64 16
  %26 = load ptr, ptr %25, align 8
  %27 = getelementptr inbounds nuw i8, ptr %26, i64 112
  %28 = load ptr, ptr %27, align 8
  %29 = zext nneg i32 %4 to i64
  %30 = getelementptr inbounds nuw i32, ptr %28, i64 %29
  %31 = load i32, ptr %30, align 4
  br label %pg_wc_tolower.exit

32:                                               ; preds = %6
  %33 = tail call i32 @u_tolower_70(i32 noundef %4) #20
  br label %pg_wc_tolower.exit

default.unreachable.i:                            ; preds = %6
  unreachable

pg_wc_tolower.exit:                               ; preds = %10, %14, %16, %23, %32
  %.0.i.ph = phi i32 [ %13, %10 ], [ %15, %14 ], [ %20, %16 ], [ %31, %23 ], [ %33, %32 ]
  %.pr = load i32, ptr @pg_regex_strategy, align 4
  %34 = load i32, ptr %.0825, align 4
  switch i32 %.pr, label %default.unreachable.i15 [
    i32 0, label %pg_wc_tolower.exit.thread
    i32 1, label %41
    i32 2, label %43
    i32 3, label %pg_wc_tolower.exit.thread20
    i32 4, label %59
  ]

pg_wc_tolower.exit.thread:                        ; preds = %8, %pg_wc_tolower.exit
  %35 = phi i32 [ %34, %pg_wc_tolower.exit ], [ %5, %8 ]
  %.0.i19 = phi i32 [ %.0.i.ph, %pg_wc_tolower.exit ], [ %4, %8 ]
  %36 = icmp ult i32 %35, 128
  br i1 %36, label %37, label %pg_wc_tolower.exit16

37:                                               ; preds = %pg_wc_tolower.exit.thread
  %38 = trunc nuw nsw i32 %35 to i8
  %39 = tail call zeroext i8 @pg_ascii_tolower(i8 noundef zeroext %38) #20
  %40 = zext i8 %39 to i32
  br label %pg_wc_tolower.exit16

41:                                               ; preds = %pg_wc_tolower.exit
  %42 = tail call i32 @unicode_lowercase_simple(i32 noundef %34) #20
  br label %pg_wc_tolower.exit16

43:                                               ; preds = %pg_wc_tolower.exit
  %44 = load ptr, ptr @pg_regex_locale, align 8
  %45 = getelementptr inbounds nuw i8, ptr %44, i64 16
  %46 = load ptr, ptr %45, align 8
  %47 = tail call i32 @towlower_l(i32 noundef %34, ptr noundef %46) #20
  br label %pg_wc_tolower.exit16

pg_wc_tolower.exit.thread20:                      ; preds = %21, %pg_wc_tolower.exit
  %48 = phi i32 [ %34, %pg_wc_tolower.exit ], [ %5, %21 ]
  %.0.i22 = phi i32 [ %.0.i.ph, %pg_wc_tolower.exit ], [ %4, %21 ]
  %49 = icmp ult i32 %48, 256
  br i1 %49, label %50, label %pg_wc_tolower.exit16

50:                                               ; preds = %pg_wc_tolower.exit.thread20
  %51 = load ptr, ptr @pg_regex_locale, align 8
  %52 = getelementptr inbounds nuw i8, ptr %51, i64 16
  %53 = load ptr, ptr %52, align 8
  %54 = getelementptr inbounds nuw i8, ptr %53, i64 112
  %55 = load ptr, ptr %54, align 8
  %56 = zext nneg i32 %48 to i64
  %57 = getelementptr inbounds nuw i32, ptr %55, i64 %56
  %58 = load i32, ptr %57, align 4
  br label %pg_wc_tolower.exit16

59:                                               ; preds = %pg_wc_tolower.exit
  %60 = tail call i32 @u_tolower_70(i32 noundef %34) #20
  br label %pg_wc_tolower.exit16

default.unreachable.i15:                          ; preds = %pg_wc_tolower.exit
  unreachable

pg_wc_tolower.exit16:                             ; preds = %pg_wc_tolower.exit.thread, %37, %41, %43, %pg_wc_tolower.exit.thread20, %50, %59
  %.0.i18 = phi i32 [ %.0.i.ph, %59 ], [ %.0.i22, %50 ], [ %.0.i.ph, %43 ], [ %.0.i.ph, %41 ], [ %.0.i19, %37 ], [ %.0.i19, %pg_wc_tolower.exit.thread ], [ %.0.i22, %pg_wc_tolower.exit.thread20 ]
  %.0.i14 = phi i32 [ %60, %59 ], [ %58, %50 ], [ %47, %43 ], [ %42, %41 ], [ %40, %37 ], [ %35, %pg_wc_tolower.exit.thread ], [ %48, %pg_wc_tolower.exit.thread20 ]
  %.not13 = icmp eq i32 %.0.i18, %.0.i14
  br i1 %.not13, label %61, label %._crit_edge

61:                                               ; preds = %.lr.ph, %pg_wc_tolower.exit16
  %62 = add i64 %.030, -1
  %63 = getelementptr inbounds nuw i8, ptr %.0924, i64 4
  %64 = getelementptr inbounds nuw i8, ptr %.0825, i64 4
  %.not = icmp eq i64 %62, 0
  br i1 %.not, label %._crit_edge, label %.lr.ph, !llvm.loop !88

._crit_edge:                                      ; preds = %pg_wc_tolower.exit16, %61, %3
  %.010 = phi i32 [ 0, %3 ], [ 0, %61 ], [ 1, %pg_wc_tolower.exit16 ]
  ret i32 %.010
}